target datalayout = "e-m:e-p270:32:32-p271:32:32-p272:64:64-i64:64-i128:128-f80:128-n8:16:32:64-S128"
target triple = "x86_64-pc-linux-gnu"

%struct.__ncnn_allocator_t = type { ptr, ptr, ptr }
%"class.ncnn::Mat" = type { ptr, ptr, i64, i32, ptr, i32, i32, i32, i32, i32, i64 }

; Function Attrs: mustprogress uwtable
define hidden ptr @ncnn_mat_create_external_4d_elem(i32 noundef %0, i32 noundef %1, i32 noundef %2, i32 noundef %3, ptr noundef %4, i64 noundef %5, i32 noundef %6, ptr noundef %7) #1 personality ptr @__gxx_personality_v0 {
  %9 = alloca i64, align 8
  %10 = alloca i32, align 4
  %11 = alloca ptr, align 8
  %12 = alloca i32, align 4
  %13 = alloca i32, align 4
  %14 = alloca i32, align 4
  %15 = alloca i32, align 4
  %16 = alloca ptr, align 8
  %17 = alloca i64, align 8
  %18 = alloca i32, align 4
  %19 = alloca ptr, align 8
  %20 = alloca i32, align 4
  %21 = alloca i32, align 4
  %22 = alloca i32, align 4
  %23 = alloca i32, align 4
  %24 = alloca ptr, align 8
  %25 = alloca i64, align 8
  %26 = alloca i32, align 4
  %27 = alloca ptr, align 8
  %28 = alloca ptr, align 8
  %29 = alloca i32, align 4
  store i32 %0, ptr %20, align 4
  store i32 %1, ptr %21, align 4
  store i32 %2, ptr %22, align 4
  store i32 %3, ptr %23, align 4
  store ptr %4, ptr %24, align 8
  store i64 %5, ptr %25, align 8
  store i32 %6, ptr %26, align 4
  store ptr %7, ptr %27, align 8
  %30 = call noalias noundef nonnull ptr @_Znwm(i64 noundef 72) #13
  %31 = load i32, ptr %20, align 4
  %32 = load i32, ptr %21, align 4
  %33 = load i32, ptr %22, align 4
  %34 = load i32, ptr %23, align 4
  %35 = load ptr, ptr %24, align 8
  %36 = load i64, ptr %25, align 8
  %37 = load i32, ptr %26, align 4
  %38 = load ptr, ptr %27, align 8
  %39 = icmp ne ptr %38, null
  br i1 %39, label %40, label %44

40:                                               ; preds = %8
  %41 = load ptr, ptr %27, align 8
  %42 = getelementptr inbounds nuw %struct.__ncnn_allocator_t, ptr %41, i32 0, i32 0
  %43 = load ptr, ptr %42, align 8
  br label %45

44:                                               ; preds = %8
  br label %45

45:                                               ; preds = %44, %40
  %46 = phi ptr [ %43, %40 ], [ null, %44 ]
  store ptr %30, ptr %11, align 8
  store i32 %31, ptr %12, align 4
  store i32 %32, ptr %13, align 4
  store i32 %33, ptr %14, align 4
  store i32 %34, ptr %15, align 4
  store ptr %35, ptr %16, align 8
  store i64 %36, ptr %17, align 8
  store i32 %37, ptr %18, align 4
  store ptr %46, ptr %19, align 8
  %47 = load ptr, ptr %11, align 8
  %48 = load ptr, ptr %16, align 8
  store ptr %48, ptr %47, align 8
  %49 = getelementptr inbounds nuw %"class.ncnn::Mat", ptr %47, i32 0, i32 1
  store ptr null, ptr %49, align 8
  %50 = getelementptr inbounds nuw %"class.ncnn::Mat", ptr %47, i32 0, i32 2
  %51 = load i64, ptr %17, align 8
  store i64 %51, ptr %50, align 8
  %52 = getelementptr inbounds nuw %"class.ncnn::Mat", ptr %47, i32 0, i32 3
  %53 = load i32, ptr %18, align 4
  store i32 %53, ptr %52, align 8
  %54 = getelementptr inbounds nuw %"class.ncnn::Mat", ptr %47, i32 0, i32 4
  %55 = load ptr, ptr %19, align 8
  store ptr %55, ptr %54, align 8
  %56 = getelementptr inbounds nuw %"class.ncnn::Mat", ptr %47, i32 0, i32 5
  store i32 4, ptr %56, align 8
  %57 = getelementptr inbounds nuw %"class.ncnn::Mat", ptr %47, i32 0, i32 6
  %58 = load i32, ptr %12, align 4
  store i32 %58, ptr %57, align 4
  %59 = getelementptr inbounds nuw %"class.ncnn::Mat", ptr %47, i32 0, i32 7
  %60 = load i32, ptr %13, align 4
  store i32 %60, ptr %59, align 8
  %61 = getelementptr inbounds nuw %"class.ncnn::Mat", ptr %47, i32 0, i32 8
  %62 = load i32, ptr %14, align 4
  store i32 %62, ptr %61, align 4
  %63 = getelementptr inbounds nuw %"class.ncnn::Mat", ptr %47, i32 0, i32 9
  %64 = load i32, ptr %15, align 4
  store i32 %64, ptr %63, align 8
  %65 = getelementptr inbounds nuw %"class.ncnn::Mat", ptr %47, i32 0, i32 6
  %66 = load i32, ptr %65, align 4
  %67 = sext i32 %66 to i64
  %68 = getelementptr inbounds nuw %"class.ncnn::Mat", ptr %47, i32 0, i32 7
  %69 = load i32, ptr %68, align 8
  %70 = sext i32 %69 to i64
  %71 = mul i64 %67, %70
  %72 = getelementptr inbounds nuw %"class.ncnn::Mat", ptr %47, i32 0, i32 8
  %73 = load i32, ptr %72, align 4
  %74 = sext i32 %73 to i64
  %75 = mul i64 %71, %74
  %76 = getelementptr inbounds nuw %"class.ncnn::Mat", ptr %47, i32 0, i32 2
  %77 = load i64, ptr %76, align 8
  %78 = mul i64 %75, %77
  store i64 %78, ptr %9, align 8
  store i32 16, ptr %10, align 4
  %79 = load i64, ptr %9, align 8
  %80 = load i32, ptr %10, align 4
  %81 = sext i32 %80 to i64
  %82 = add i64 %79, %81
  %83 = sub i64 %82, 1
  %84 = load i32, ptr %10, align 4
  %85 = sub nsw i32 0, %84
  %86 = sext i32 %85 to i64
  %87 = and i64 %83, %86
  %88 = getelementptr inbounds nuw %"class.ncnn::Mat", ptr %47, i32 0, i32 2
  %89 = load i64, ptr %88, align 8
  %90 = udiv i64 %87, %89
  %91 = getelementptr inbounds nuw %"class.ncnn::Mat", ptr %47, i32 0, i32 10
  store i64 %90, ptr %91, align 8
  br label %92

92:                                               ; preds = %45
  ret ptr %30

93:                                               ; No predecessors!
  %94 = landingpad { ptr, i32 }
          cleanup
  %95 = extractvalue { ptr, i32 } %94, 0
  store ptr %95, ptr %28, align 8
  %96 = extractvalue { ptr, i32 } %94, 1
  store i32 %96, ptr %29, align 4
  call void @_ZdlPvm(ptr noundef %30, i64 noundef 72) #14
  br label %97

97:                                               ; preds = %93
  %98 = load ptr, ptr %28, align 8
  %99 = load i32, ptr %29, align 4
  %100 = insertvalue { ptr, i32 } poison, ptr %98, 0
  %101 = insertvalue { ptr, i32 } %100, i32 %99, 1
  resume { ptr, i32 } %101
}