; Function Attrs: mustprogress uwtable
define hidden noalias noundef nonnull ptr @ncnn_mat_create_external_4d_elem(i32 noundef %0, i32 noundef %1, i32 noundef %2, i32 noundef %3, ptr noundef %4, i64 noundef %5, i32 noundef %6, ptr noundef readonly %7) local_unnamed_addr #1 personality ptr @__gxx_personality_v0 {
  %9 = tail call noalias noundef nonnull dereferenceable(72) ptr @_Znwm(i64 noundef 72) #24
  %.not = icmp eq ptr %7, null
  br i1 %.not, label %12, label %10

10:                                               ; preds = %8
  %11 = load ptr, ptr %7, align 8
  br label %12

12:                                               ; preds = %8, %10
  %13 = phi ptr [ %11, %10 ], [ null, %8 ]
  store ptr %4, ptr %9, align 8
  %14 = getelementptr inbounds nuw i8, ptr %9, i64 8
  store ptr null, ptr %14, align 8
  %15 = getelementptr inbounds nuw i8, ptr %9, i64 16
  store i64 %5, ptr %15, align 8
  %16 = getelementptr inbounds nuw i8, ptr %9, i64 24
  store i32 %6, ptr %16, align 8
  %17 = getelementptr inbounds nuw i8, ptr %9, i64 32
  store ptr %13, ptr %17, align 8
  %18 = getelementptr inbounds nuw i8, ptr %9, i64 40
  store i32 4, ptr %18, align 8
  %19 = getelementptr inbounds nuw i8, ptr %9, i64 44
  store i32 %0, ptr %19, align 4
  %20 = getelementptr inbounds nuw i8, ptr %9, i64 48
  store i32 %1, ptr %20, align 8
  %21 = getelementptr inbounds nuw i8, ptr %9, i64 52
  store i32 %2, ptr %21, align 4
  %22 = getelementptr inbounds nuw i8, ptr %9, i64 56
  store i32 %3, ptr %22, align 8
  %23 = sext i32 %0 to i64
  %24 = sext i32 %1 to i64
  %25 = mul nsw i64 %24, %23
  %26 = sext i32 %2 to i64
  %27 = mul i64 %25, %26
  %28 = mul i64 %27, %5
  %29 = add i64 %28, 15
  %30 = and i64 %29, -16
  %31 = udiv i64 %30, %5
  %32 = getelementptr inbounds nuw i8, ptr %9, i64 64
  store i64 %31, ptr %32, align 8
  ret ptr %9
}